; Function Attrs: nounwind uwtable
define internal void @libpq_queue_fetch_file(ptr noundef %0, ptr noundef %1, i64 noundef %2) #0 {
  tail call void @open_target_file(ptr noundef %1, i1 noundef zeroext true) #10
  %4 = tail call i64 @llvm.umax.i64(i64 %2, i64 1048576)
  %5 = getelementptr inbounds nuw i8, ptr %0, i64 64
  %6 = load i32, ptr %5, align 8
  %7 = icmp sgt i32 %6, 0
  br i1 %7, label %8, label %.lr.ph.i

8:                                                ; preds = %3
  %9 = getelementptr inbounds nuw i8, ptr %0, i64 72
  %10 = add nsw i32 %6, -1
  %11 = zext nneg i32 %10 to i64
  %12 = getelementptr inbounds nuw [1000 x %struct.fetch_range_request], ptr %9, i64 0, i64 %11
  %13 = getelementptr inbounds nuw i8, ptr %12, i64 8
  %14 = load i64, ptr %13, align 8
  %15 = getelementptr inbounds nuw i8, ptr %12, i64 16
  %16 = load i64, ptr %15, align 8
  %17 = sub i64 0, %14
  %18 = icmp eq i64 %16, %17
  %19 = icmp ult i64 %16, 1048576
  %or.cond.i = and i1 %19, %18
  br i1 %or.cond.i, label %20, label %.lr.ph.i

20:                                               ; preds = %8
  %21 = load ptr, ptr %12, align 8
  %22 = icmp eq ptr %21, %1
  br i1 %22, label %23, label %.lr.ph.i

23:                                               ; preds = %20
  %24 = sub nuw nsw i64 1048576, %16
  store i64 1048576, ptr %15, align 8
  %25 = sub nuw i64 %4, %24
  %.not48.i = icmp eq i64 %25, 0
  br i1 %.not48.i, label %libpq_queue_fetch_range.exit, label %.lr.ph.i

.lr.ph.i:                                         ; preds = %8, %20, %3, %23
  %.0.i8 = phi i64 [ %24, %23 ], [ 0, %3 ], [ 0, %20 ], [ 0, %8 ]
  %.038.i7 = phi i64 [ %25, %23 ], [ %4, %3 ], [ %4, %20 ], [ %4, %8 ]
  %26 = getelementptr inbounds nuw i8, ptr %0, i64 72
  br label %27

27:                                               ; preds = %31, %.lr.ph.i
  %28 = phi i32 [ %6, %.lr.ph.i ], [ %40, %31 ]
  %.250.i = phi i64 [ %.0.i8, %.lr.ph.i ], [ %41, %31 ]
  %.24049.i = phi i64 [ %.038.i7, %.lr.ph.i ], [ %42, %31 ]
  %29 = icmp eq i32 %28, 1000
  br i1 %29, label %30, label %31

30:                                               ; preds = %27
  tail call fastcc void @process_queued_fetch_requests(ptr noundef nonnull %0)
  %.pre.i = load i32, ptr %5, align 8
  br label %31

31:                                               ; preds = %30, %27
  %32 = phi i32 [ %.pre.i, %30 ], [ %28, %27 ]
  %33 = tail call i64 @llvm.umin.i64(i64 %.24049.i, i64 1048576)
  %34 = sext i32 %32 to i64
  %35 = getelementptr inbounds [1000 x %struct.fetch_range_request], ptr %26, i64 0, i64 %34
  store ptr %1, ptr %35, align 8
  %.idx.i = mul nsw i64 %34, 24
  %36 = getelementptr i8, ptr %26, i64 %.idx.i
  %37 = getelementptr i8, ptr %36, i64 8
  store i64 %.250.i, ptr %37, align 8
  %38 = getelementptr i8, ptr %36, i64 16
  store i64 %33, ptr %38, align 8
  %39 = load i32, ptr %5, align 8
  %40 = add i32 %39, 1
  store i32 %40, ptr %5, align 8
  %41 = add i64 %33, %.250.i
  %42 = sub i64 %.24049.i, %33
  %.not.i = icmp eq i64 %42, 0
  br i1 %.not.i, label %libpq_queue_fetch_range.exit, label %27, !llvm.loop !7

libpq_queue_fetch_range.exit:                     ; preds = %31, %23
  ret void
}